ccopy_reg
_reconstructor
p0
(c__main__
Memory
p1
c__builtin__
object
p2
Ntp3
Rp4
(dp5
S'root'
p6
g0
(c__main__
Directory
p7
g2
Ntp8
Rp9
(dp10
S'datakey'
p11
S'460ba1a9-9324-4c9d-9de9-0f7edb796b9c'
p12
sS'children'
p13
(dp14
sS'name'
p15
S'/'
p16
sS'metadata'
p17
(dp18
S'st_ctime'
p19
F1446056835.261708
sS'st_mtime'
p20
F1446056835.261708
sS'st_nlink'
p21
I2
sS'st_atime'
p22
F1446056835.261708
sS'st_mode'
p23
I16877
ssbsS'fd'
p24
I0
sb.